target datalayout = "e-m:e-p270:32:32-p271:32:32-p272:64:64-i64:64-i128:128-f80:128-n8:16:32:64-S128"
target triple = "x86_64-pc-linux-gnu"

%struct.buf_t = type { i32, ptr, i32, i32, i8, i8 }

; Function Attrs: nounwind uwtable
define dso_local i32 @spawn_resp_send_to_srun(ptr noundef %0) #0 {
  %2 = alloca ptr, align 8
  %3 = alloca ptr, align 8
  %4 = alloca i32, align 4
  %5 = alloca i16, align 2
  store ptr %0, ptr %2, align 8
  call void @llvm.lifetime.start.p0(i64 8, ptr %3) #7
  call void @llvm.lifetime.start.p0(i64 4, ptr %4) #7
  call void @llvm.lifetime.start.p0(i64 2, ptr %5) #7
  %6 = call ptr @slurm_init_buf(i32 noundef 1024)
  store ptr %6, ptr %3, align 8
  store i16 3, ptr %5, align 2
  %7 = load i16, ptr %5, align 2
  %8 = load ptr, ptr %3, align 8
  call void @slurm_pack16(i16 noundef zeroext %7, ptr noundef %8)
  %9 = load ptr, ptr %2, align 8
  %10 = load ptr, ptr %3, align 8
  call void @spawn_resp_pack(ptr noundef %9, ptr noundef %10)
  %11 = load ptr, ptr %3, align 8
  %12 = getelementptr inbounds nuw %struct.buf_t, ptr %11, i32 0, i32 3
  %13 = load i32, ptr %12, align 4
  %14 = load ptr, ptr %3, align 8
  %15 = getelementptr inbounds nuw %struct.buf_t, ptr %14, i32 0, i32 1
  %16 = load ptr, ptr %15, align 8
  %17 = call i32 @tree_msg_to_srun(i32 noundef %13, ptr noundef %16)
  store i32 %17, ptr %4, align 4
  br label %18

18:                                               ; preds = %1
  %19 = load ptr, ptr %3, align 8
  %20 = icmp ne ptr %19, null
  br i1 %20, label %21, label %23

21:                                               ; preds = %18
  %22 = load ptr, ptr %3, align 8
  call void @slurm_free_buf(ptr noundef %22)
  br label %23

23:                                               ; preds = %21, %18
  store ptr null, ptr %3, align 8
  br label %24

24:                                               ; preds = %23
  br label %25

25:                                               ; preds = %24
  %26 = load i32, ptr %4, align 4
  call void @llvm.lifetime.end.p0(i64 2, ptr %5) #7
  call void @llvm.lifetime.end.p0(i64 4, ptr %4) #7
  call void @llvm.lifetime.end.p0(i64 8, ptr %3) #7
  ret i32 %26
}