; Function Attrs: nounwind uwtable
define dso_local i32 @spawn_resp_send_to_srun(ptr noundef readonly captures(none) %0) local_unnamed_addr #0 {
  %2 = tail call ptr @slurm_init_buf(i32 noundef 1024) #10
  tail call void @slurm_pack16(i16 noundef zeroext 3, ptr noundef %2) #10
  tail call void @spawn_resp_pack(ptr noundef %0, ptr noundef %2)
  %3 = getelementptr inbounds nuw i8, ptr %2, i64 20
  %4 = load i32, ptr %3, align 4
  %5 = getelementptr inbounds nuw i8, ptr %2, i64 8
  %6 = load ptr, ptr %5, align 8
  %7 = tail call i32 @tree_msg_to_srun(i32 noundef %4, ptr noundef %6) #10
  tail call void @slurm_free_buf(ptr noundef nonnull %2) #10
  ret i32 %7
}